target datalayout = "e-m:e-p270:32:32-p271:32:32-p272:64:64-i64:64-i128:128-f80:128-n8:16:32:64-S128"
target triple = "x86_64-pc-linux-gnu"

%class.EmdL1 = type { i32, i32, i32, i32, i32, i32, %"class.std::vector", %"class.std::vector.3", %"class.std::vector.3", %"class.std::vector.8", %"class.std::vector.13", %"class.std::vector.13", %"class.std::vector.13", %"class.std::vector.18", %"class.std::vector.23", ptr, ptr, i32, ptr, i32, %"class.std::vector.18", %"class.std::vector.18", i32, i32 }
%"class.std::vector" = type { %"struct.std::_Vector_base" }
%"struct.std::_Vector_base" = type { %"struct.std::_Vector_base<std::vector<cvEMDNode>, std::allocator<std::vector<cvEMDNode>>>::_Vector_impl" }
%"struct.std::_Vector_base<std::vector<cvEMDNode>, std::allocator<std::vector<cvEMDNode>>>::_Vector_impl" = type { %"struct.std::_Vector_base<std::vector<cvEMDNode>, std::allocator<std::vector<cvEMDNode>>>::_Vector_impl_data" }
%"struct.std::_Vector_base<std::vector<cvEMDNode>, std::allocator<std::vector<cvEMDNode>>>::_Vector_impl_data" = type { ptr, ptr, ptr }
%"class.std::vector.3" = type { %"struct.std::_Vector_base.4" }
%"struct.std::_Vector_base.4" = type { %"struct.std::_Vector_base<std::vector<cvEMDEdge>, std::allocator<std::vector<cvEMDEdge>>>::_Vector_impl" }
%"struct.std::_Vector_base<std::vector<cvEMDEdge>, std::allocator<std::vector<cvEMDEdge>>>::_Vector_impl" = type { %"struct.std::_Vector_base<std::vector<cvEMDEdge>, std::allocator<std::vector<cvEMDEdge>>>::_Vector_impl_data" }
%"struct.std::_Vector_base<std::vector<cvEMDEdge>, std::allocator<std::vector<cvEMDEdge>>>::_Vector_impl_data" = type { ptr, ptr, ptr }
%"class.std::vector.8" = type { %"struct.std::_Vector_base.9" }
%"struct.std::_Vector_base.9" = type { %"struct.std::_Vector_base<std::vector<std::vector<cvEMDNode>>, std::allocator<std::vector<std::vector<cvEMDNode>>>>::_Vector_impl" }
%"struct.std::_Vector_base<std::vector<std::vector<cvEMDNode>>, std::allocator<std::vector<std::vector<cvEMDNode>>>>::_Vector_impl" = type { %"struct.std::_Vector_base<std::vector<std::vector<cvEMDNode>>, std::allocator<std::vector<std::vector<cvEMDNode>>>>::_Vector_impl_data" }
%"struct.std::_Vector_base<std::vector<std::vector<cvEMDNode>>, std::allocator<std::vector<std::vector<cvEMDNode>>>>::_Vector_impl_data" = type { ptr, ptr, ptr }
%"class.std::vector.13" = type { %"struct.std::_Vector_base.14" }
%"struct.std::_Vector_base.14" = type { %"struct.std::_Vector_base<std::vector<std::vector<cvEMDEdge>>, std::allocator<std::vector<std::vector<cvEMDEdge>>>>::_Vector_impl" }
%"struct.std::_Vector_base<std::vector<std::vector<cvEMDEdge>>, std::allocator<std::vector<std::vector<cvEMDEdge>>>>::_Vector_impl" = type { %"struct.std::_Vector_base<std::vector<std::vector<cvEMDEdge>>, std::allocator<std::vector<std::vector<cvEMDEdge>>>>::_Vector_impl_data" }
%"struct.std::_Vector_base<std::vector<std::vector<cvEMDEdge>>, std::allocator<std::vector<std::vector<cvEMDEdge>>>>::_Vector_impl_data" = type { ptr, ptr, ptr }
%"class.std::vector.23" = type { %"struct.std::_Vector_base.24" }
%"struct.std::_Vector_base.24" = type { %"struct.std::_Vector_base<cvEMDNode *, std::allocator<cvEMDNode *>>::_Vector_impl" }
%"struct.std::_Vector_base<cvEMDNode *, std::allocator<cvEMDNode *>>::_Vector_impl" = type { %"struct.std::_Vector_base<cvEMDNode *, std::allocator<cvEMDNode *>>::_Vector_impl_data" }
%"struct.std::_Vector_base<cvEMDNode *, std::allocator<cvEMDNode *>>::_Vector_impl_data" = type { ptr, ptr, ptr }
%"class.std::vector.18" = type { %"struct.std::_Vector_base.19" }
%"struct.std::_Vector_base.19" = type { %"struct.std::_Vector_base<cvEMDEdge *, std::allocator<cvEMDEdge *>>::_Vector_impl" }
%"struct.std::_Vector_base<cvEMDEdge *, std::allocator<cvEMDEdge *>>::_Vector_impl" = type { %"struct.std::_Vector_base<cvEMDEdge *, std::allocator<cvEMDEdge *>>::_Vector_impl_data" }
%"struct.std::_Vector_base<cvEMDEdge *, std::allocator<cvEMDEdge *>>::_Vector_impl_data" = type { ptr, ptr, ptr }
%struct.cvEMDEdge = type { float, i32, ptr, ptr, ptr }
%struct.cvEMDNode = type { [3 x i32], float, i32, i32, ptr, ptr, ptr }

; Function Attrs: mustprogress nounwind uwtable
define linkonce_odr hidden noundef nonnull align 8 dereferenceable(8) ptr @_ZNSt6vectorIP9cvEMDEdgeSaIS1_EEixEm(ptr noundef nonnull align 8 dereferenceable(24) %0, i64 noundef %1) #7 comdat align 2 {
  %3 = alloca ptr, align 8
  %4 = alloca i64, align 8
  store ptr %0, ptr %3, align 8, !tbaa !134
  store i64 %1, ptr %4, align 8, !tbaa !87
  %5 = load ptr, ptr %3, align 8
  %6 = getelementptr inbounds nuw %"struct.std::_Vector_base.19", ptr %5, i32 0, i32 0
  %7 = getelementptr inbounds nuw %"struct.std::_Vector_base<cvEMDEdge *, std::allocator<cvEMDEdge *>>::_Vector_impl_data", ptr %6, i32 0, i32 0
  %8 = load ptr, ptr %7, align 8, !tbaa !136
  %9 = load i64, ptr %4, align 8, !tbaa !87
  %10 = getelementptr inbounds nuw ptr, ptr %8, i64 %9
  ret ptr %10
}

; Function Attrs: mustprogress nounwind uwtable
define hidden noundef zeroext i1 @_ZN5EmdL19isOptimalEv(ptr noundef nonnull align 8 dereferenceable(336) %0) #7 align 2 {
  %2 = alloca ptr, align 8
  %3 = alloca i32, align 4
  %4 = alloca i32, align 4
  %5 = alloca ptr, align 8
  %6 = alloca i32, align 4
  %7 = alloca ptr, align 8
  store ptr %0, ptr %2, align 8, !tbaa !3
  %8 = load ptr, ptr %2, align 8
  call void @llvm.lifetime.start.p0(i64 4, ptr %3) #3
  call void @llvm.lifetime.start.p0(i64 4, ptr %4) #3
  store i32 0, ptr %4, align 4, !tbaa !23
  call void @llvm.lifetime.start.p0(i64 8, ptr %5) #3
  %9 = getelementptr inbounds nuw %class.EmdL1, ptr %8, i32 0, i32 16
  store ptr null, ptr %9, align 8, !tbaa !69
  %10 = getelementptr inbounds nuw %class.EmdL1, ptr %8, i32 0, i32 17
  store i32 -1, ptr %10, align 8, !tbaa !111
  call void @llvm.lifetime.start.p0(i64 4, ptr %6) #3
  store i32 0, ptr %6, align 4, !tbaa !23
  br label %11

11:                                               ; preds = %64, %1
  %12 = load i32, ptr %6, align 4, !tbaa !23
  %13 = getelementptr inbounds nuw %class.EmdL1, ptr %8, i32 0, i32 4
  %14 = load i32, ptr %13, align 8, !tbaa !112
  %15 = icmp slt i32 %12, %14
  br i1 %15, label %17, label %16

16:                                               ; preds = %11
  call void @llvm.lifetime.end.p0(i64 4, ptr %6) #3
  br label %67

17:                                               ; preds = %11
  %18 = getelementptr inbounds nuw %class.EmdL1, ptr %8, i32 0, i32 13
  %19 = load i32, ptr %6, align 4, !tbaa !23
  %20 = sext i32 %19 to i64
  %21 = call noundef nonnull align 8 dereferenceable(8) ptr @_ZNSt6vectorIP9cvEMDEdgeSaIS1_EEixEm(ptr noundef nonnull align 8 dereferenceable(24) %18, i64 noundef %20) #3
  %22 = load ptr, ptr %21, align 8, !tbaa !106
  store ptr %22, ptr %5, align 8, !tbaa !106
  %23 = load ptr, ptr %5, align 8, !tbaa !106
  %24 = getelementptr inbounds nuw %struct.cvEMDEdge, ptr %23, i32 0, i32 2
  %25 = load ptr, ptr %24, align 8, !tbaa !94
  %26 = getelementptr inbounds nuw %struct.cvEMDNode, ptr %25, i32 0, i32 2
  %27 = load i32, ptr %26, align 8, !tbaa !103
  %28 = sub nsw i32 1, %27
  %29 = load ptr, ptr %5, align 8, !tbaa !106
  %30 = getelementptr inbounds nuw %struct.cvEMDEdge, ptr %29, i32 0, i32 3
  %31 = load ptr, ptr %30, align 8, !tbaa !70
  %32 = getelementptr inbounds nuw %struct.cvEMDNode, ptr %31, i32 0, i32 2
  %33 = load i32, ptr %32, align 8, !tbaa !103
  %34 = add nsw i32 %28, %33
  store i32 %34, ptr %3, align 4, !tbaa !23
  %35 = load i32, ptr %3, align 4, !tbaa !23
  %36 = load i32, ptr %4, align 4, !tbaa !23
  %37 = icmp slt i32 %35, %36
  br i1 %37, label %38, label %42

38:                                               ; preds = %17
  %39 = load i32, ptr %3, align 4, !tbaa !23
  store i32 %39, ptr %4, align 4, !tbaa !23
  %40 = load i32, ptr %6, align 4, !tbaa !23
  %41 = getelementptr inbounds nuw %class.EmdL1, ptr %8, i32 0, i32 17
  store i32 %40, ptr %41, align 8, !tbaa !111
  br label %63

42:                                               ; preds = %17
  %43 = load ptr, ptr %5, align 8, !tbaa !106
  %44 = getelementptr inbounds nuw %struct.cvEMDEdge, ptr %43, i32 0, i32 2
  %45 = load ptr, ptr %44, align 8, !tbaa !94
  %46 = getelementptr inbounds nuw %struct.cvEMDNode, ptr %45, i32 0, i32 2
  %47 = load i32, ptr %46, align 8, !tbaa !103
  %48 = add nsw i32 1, %47
  %49 = load ptr, ptr %5, align 8, !tbaa !106
  %50 = getelementptr inbounds nuw %struct.cvEMDEdge, ptr %49, i32 0, i32 3
  %51 = load ptr, ptr %50, align 8, !tbaa !70
  %52 = getelementptr inbounds nuw %struct.cvEMDNode, ptr %51, i32 0, i32 2
  %53 = load i32, ptr %52, align 8, !tbaa !103
  %54 = sub nsw i32 %48, %53
  store i32 %54, ptr %3, align 4, !tbaa !23
  %55 = load i32, ptr %3, align 4, !tbaa !23
  %56 = load i32, ptr %4, align 4, !tbaa !23
  %57 = icmp slt i32 %55, %56
  br i1 %57, label %58, label %62

58:                                               ; preds = %42
  %59 = load i32, ptr %3, align 4, !tbaa !23
  store i32 %59, ptr %4, align 4, !tbaa !23
  %60 = load i32, ptr %6, align 4, !tbaa !23
  %61 = getelementptr inbounds nuw %class.EmdL1, ptr %8, i32 0, i32 17
  store i32 %60, ptr %61, align 8, !tbaa !111
  br label %62

62:                                               ; preds = %58, %42
  br label %63

63:                                               ; preds = %62, %38
  br label %64

64:                                               ; preds = %63
  %65 = load i32, ptr %6, align 4, !tbaa !23
  %66 = add nsw i32 %65, 1
  store i32 %66, ptr %6, align 4, !tbaa !23
  br label %11, !llvm.loop !113

67:                                               ; preds = %16
  %68 = getelementptr inbounds nuw %class.EmdL1, ptr %8, i32 0, i32 17
  %69 = load i32, ptr %68, align 8, !tbaa !111
  %70 = icmp sge i32 %69, 0
  br i1 %70, label %71, label %115

71:                                               ; preds = %67
  %72 = getelementptr inbounds nuw %class.EmdL1, ptr %8, i32 0, i32 13
  %73 = getelementptr inbounds nuw %class.EmdL1, ptr %8, i32 0, i32 17
  %74 = load i32, ptr %73, align 8, !tbaa !111
  %75 = sext i32 %74 to i64
  %76 = call noundef nonnull align 8 dereferenceable(8) ptr @_ZNSt6vectorIP9cvEMDEdgeSaIS1_EEixEm(ptr noundef nonnull align 8 dereferenceable(24) %72, i64 noundef %75) #3
  %77 = load ptr, ptr %76, align 8, !tbaa !106
  %78 = getelementptr inbounds nuw %class.EmdL1, ptr %8, i32 0, i32 16
  store ptr %77, ptr %78, align 8, !tbaa !69
  %79 = load i32, ptr %4, align 4, !tbaa !23
  %80 = getelementptr inbounds nuw %class.EmdL1, ptr %8, i32 0, i32 16
  %81 = load ptr, ptr %80, align 8, !tbaa !69
  %82 = getelementptr inbounds nuw %struct.cvEMDEdge, ptr %81, i32 0, i32 3
  %83 = load ptr, ptr %82, align 8, !tbaa !70
  %84 = getelementptr inbounds nuw %struct.cvEMDNode, ptr %83, i32 0, i32 2
  %85 = load i32, ptr %84, align 8, !tbaa !103
  %86 = sub nsw i32 1, %85
  %87 = getelementptr inbounds nuw %class.EmdL1, ptr %8, i32 0, i32 16
  %88 = load ptr, ptr %87, align 8, !tbaa !69
  %89 = getelementptr inbounds nuw %struct.cvEMDEdge, ptr %88, i32 0, i32 2
  %90 = load ptr, ptr %89, align 8, !tbaa !94
  %91 = getelementptr inbounds nuw %struct.cvEMDNode, ptr %90, i32 0, i32 2
  %92 = load i32, ptr %91, align 8, !tbaa !103
  %93 = add nsw i32 %86, %92
  %94 = icmp eq i32 %79, %93
  br i1 %94, label %95, label %111

95:                                               ; preds = %71
  call void @llvm.lifetime.start.p0(i64 8, ptr %7) #3
  %96 = getelementptr inbounds nuw %class.EmdL1, ptr %8, i32 0, i32 16
  %97 = load ptr, ptr %96, align 8, !tbaa !69
  %98 = getelementptr inbounds nuw %struct.cvEMDEdge, ptr %97, i32 0, i32 2
  %99 = load ptr, ptr %98, align 8, !tbaa !94
  store ptr %99, ptr %7, align 8, !tbaa !105
  %100 = getelementptr inbounds nuw %class.EmdL1, ptr %8, i32 0, i32 16
  %101 = load ptr, ptr %100, align 8, !tbaa !69
  %102 = getelementptr inbounds nuw %struct.cvEMDEdge, ptr %101, i32 0, i32 3
  %103 = load ptr, ptr %102, align 8, !tbaa !70
  %104 = getelementptr inbounds nuw %class.EmdL1, ptr %8, i32 0, i32 16
  %105 = load ptr, ptr %104, align 8, !tbaa !69
  %106 = getelementptr inbounds nuw %struct.cvEMDEdge, ptr %105, i32 0, i32 2
  store ptr %103, ptr %106, align 8, !tbaa !94
  %107 = load ptr, ptr %7, align 8, !tbaa !105
  %108 = getelementptr inbounds nuw %class.EmdL1, ptr %8, i32 0, i32 16
  %109 = load ptr, ptr %108, align 8, !tbaa !69
  %110 = getelementptr inbounds nuw %struct.cvEMDEdge, ptr %109, i32 0, i32 3
  store ptr %107, ptr %110, align 8, !tbaa !70
  call void @llvm.lifetime.end.p0(i64 8, ptr %7) #3
  br label %111

111:                                              ; preds = %95, %71
  %112 = getelementptr inbounds nuw %class.EmdL1, ptr %8, i32 0, i32 16
  %113 = load ptr, ptr %112, align 8, !tbaa !69
  %114 = getelementptr inbounds nuw %struct.cvEMDEdge, ptr %113, i32 0, i32 1
  store i32 1, ptr %114, align 4, !tbaa !96
  br label %115

115:                                              ; preds = %111, %67
  %116 = getelementptr inbounds nuw %class.EmdL1, ptr %8, i32 0, i32 17
  %117 = load i32, ptr %116, align 8, !tbaa !111
  %118 = icmp eq i32 %117, -1
  call void @llvm.lifetime.end.p0(i64 8, ptr %5) #3
  call void @llvm.lifetime.end.p0(i64 4, ptr %4) #3
  call void @llvm.lifetime.end.p0(i64 4, ptr %3) #3
  ret i1 %118
}