; Function Attrs: mustprogress nofree norecurse nosync nounwind memory(readwrite, inaccessiblemem: none) uwtable
define hidden noundef zeroext i1 @_ZN5EmdL19isOptimalEv(ptr noundef nonnull align 8 captures(none) dereferenceable(336) initializes((248, 260)) %0) local_unnamed_addr #7 align 2 {
  %2 = getelementptr inbounds nuw i8, ptr %0, i64 248
  store ptr null, ptr %2, align 8, !tbaa !79
  %3 = getelementptr inbounds nuw i8, ptr %0, i64 256
  store i32 -1, ptr %3, align 8, !tbaa !80
  %4 = getelementptr inbounds nuw i8, ptr %0, i64 16
  %5 = load i32, ptr %4, align 8, !tbaa !81
  %6 = icmp sgt i32 %5, 0
  br i1 %6, label %.lr.ph, label %._crit_edge.thread

.lr.ph:                                           ; preds = %1
  %7 = getelementptr inbounds nuw i8, ptr %0, i64 192
  %8 = load ptr, ptr %7, align 8, !tbaa !82
  %wide.trip.count = zext nneg i32 %5 to i64
  br label %10

._crit_edge:                                      ; preds = %29
  %9 = icmp sgt i32 %30, -1
  br i1 %9, label %31, label %._crit_edge.thread

10:                                               ; preds = %.lr.ph, %29
  %11 = phi i32 [ -1, %.lr.ph ], [ %30, %29 ]
  %indvars.iv = phi i64 [ 0, %.lr.ph ], [ %indvars.iv.next, %29 ]
  %.01723 = phi i32 [ 0, %.lr.ph ], [ %.1, %29 ]
  %12 = getelementptr inbounds nuw ptr, ptr %8, i64 %indvars.iv
  %13 = load ptr, ptr %12, align 8, !tbaa !83
  %14 = getelementptr inbounds nuw i8, ptr %13, i64 8
  %15 = load ptr, ptr %14, align 8, !tbaa !84
  %16 = getelementptr inbounds nuw i8, ptr %15, i64 16
  %17 = load i32, ptr %16, align 8, !tbaa !76
  %18 = getelementptr inbounds nuw i8, ptr %13, i64 16
  %19 = load ptr, ptr %18, align 8, !tbaa !72
  %20 = getelementptr inbounds nuw i8, ptr %19, i64 16
  %21 = load i32, ptr %20, align 8, !tbaa !76
  %reass.sub21 = sub i32 %21, %17
  %22 = add i32 %reass.sub21, 1
  %23 = icmp slt i32 %22, %.01723
  br i1 %23, label %.sink.split, label %24

24:                                               ; preds = %10
  %25 = add nsw i32 %17, 1
  %26 = sub i32 %25, %21
  %27 = icmp slt i32 %26, %.01723
  br i1 %27, label %.sink.split, label %29

.sink.split:                                      ; preds = %24, %10
  %.1.ph = phi i32 [ %22, %10 ], [ %26, %24 ]
  %28 = trunc nuw nsw i64 %indvars.iv to i32
  store i32 %28, ptr %3, align 8, !tbaa !80
  br label %29

29:                                               ; preds = %.sink.split, %24
  %30 = phi i32 [ %11, %24 ], [ %28, %.sink.split ]
  %.1 = phi i32 [ %.01723, %24 ], [ %.1.ph, %.sink.split ]
  %indvars.iv.next = add nuw nsw i64 %indvars.iv, 1
  %exitcond.not = icmp eq i64 %indvars.iv.next, %wide.trip.count
  br i1 %exitcond.not, label %._crit_edge, label %10, !llvm.loop !85

31:                                               ; preds = %._crit_edge
  %32 = getelementptr inbounds nuw i8, ptr %0, i64 192
  %33 = zext nneg i32 %30 to i64
  %34 = load ptr, ptr %32, align 8, !tbaa !82
  %35 = getelementptr inbounds nuw ptr, ptr %34, i64 %33
  %36 = load ptr, ptr %35, align 8, !tbaa !83
  store ptr %36, ptr %2, align 8, !tbaa !79
  %37 = getelementptr inbounds nuw i8, ptr %36, i64 16
  %38 = load ptr, ptr %37, align 8, !tbaa !72
  %39 = getelementptr inbounds nuw i8, ptr %38, i64 16
  %40 = load i32, ptr %39, align 8, !tbaa !76
  %41 = getelementptr inbounds nuw i8, ptr %36, i64 8
  %42 = load ptr, ptr %41, align 8, !tbaa !84
  %43 = getelementptr inbounds nuw i8, ptr %42, i64 16
  %44 = load i32, ptr %43, align 8, !tbaa !76
  %reass.sub25 = sub i32 %44, %40
  %45 = add i32 %reass.sub25, 1
  %46 = icmp eq i32 %.1, %45
  br i1 %46, label %47, label %48

47:                                               ; preds = %31
  store ptr %38, ptr %41, align 8, !tbaa !84
  store ptr %42, ptr %37, align 8, !tbaa !72
  br label %48

48:                                               ; preds = %47, %31
  %49 = getelementptr inbounds nuw i8, ptr %36, i64 4
  store i32 1, ptr %49, align 4, !tbaa !75
  br label %._crit_edge.thread

._crit_edge.thread:                               ; preds = %1, %48, %._crit_edge
  %50 = phi i32 [ %30, %48 ], [ %30, %._crit_edge ], [ -1, %1 ]
  %51 = icmp eq i32 %50, -1
  ret i1 %51
}